; Function Attrs: mustprogress nofree norecurse nosync nounwind willreturn memory(argmem: read) uwtable
define noundef i32 @_Z7cvFloorRKN2cv10softdoubleE(ptr nocapture noundef nonnull readonly align 8 dereferenceable(8) %0) local_unnamed_addr #4 {
  %2 = load i64, ptr %0, align 8
  %3 = icmp slt i64 %2, 0
  %4 = lshr i64 %2, 52
  %5 = and i64 %4, 2047
  %6 = and i64 %2, 4503599627370495
  %7 = icmp ne i64 %5, 2047
  %8 = icmp eq i64 %6, 0
  %or.cond.not.i = or i1 %8, %7
  %spec.select.i = and i1 %3, %or.cond.not.i
  %.not.i = icmp eq i64 %5, 0
  %9 = or disjoint i64 %6, 4503599627370496
  %.016.i = select i1 %.not.i, i64 %6, i64 %9
  %10 = icmp ult i64 %5, 1063
  br i1 %10, label %11, label %_ZN2cvL25softfloat_shiftRightJam64Emm.exit.i

11:                                               ; preds = %1
  %12 = icmp ugt i64 %5, 1000
  br i1 %12, label %13, label %21

13:                                               ; preds = %11
  %.neg.i = add nuw nsw i64 %4, 25
  %14 = sub nuw nsw i64 1063, %5
  %15 = lshr i64 %9, %14
  %16 = and i64 %.neg.i, 63
  %17 = shl i64 %9, %16
  %18 = icmp ne i64 %17, 0
  %19 = zext i1 %18 to i64
  %20 = or i64 %15, %19
  br label %_ZN2cvL25softfloat_shiftRightJam64Emm.exit.i

21:                                               ; preds = %11
  %22 = icmp ne i64 %.016.i, 0
  %23 = zext i1 %22 to i64
  br label %_ZN2cvL25softfloat_shiftRightJam64Emm.exit.i

_ZN2cvL25softfloat_shiftRightJam64Emm.exit.i:     ; preds = %21, %13, %1
  %.1.i = phi i64 [ %.016.i, %1 ], [ %20, %13 ], [ %23, %21 ]
  %24 = select i1 %spec.select.i, i64 4095, i64 0
  %25 = add nuw nsw i64 %.1.i, %24
  %.not.i.i = icmp ult i64 %25, 17592186044416
  br i1 %.not.i.i, label %26, label %32

26:                                               ; preds = %_ZN2cvL25softfloat_shiftRightJam64Emm.exit.i
  %27 = lshr i64 %25, 12
  %28 = sub nsw i64 0, %27
  %29 = select i1 %spec.select.i, i64 %28, i64 %27
  %sext.i.i = shl i64 %29, 32
  %30 = ashr exact i64 %sext.i.i, 32
  %.not32.i.i = icmp eq i64 %sext.i.i, 0
  %31 = icmp sgt i64 %30, -1
  %.not3334.i.i = xor i1 %spec.select.i, %31
  %or.cond.i.i = select i1 %.not32.i.i, i1 true, i1 %.not3334.i.i
  br i1 %or.cond.i.i, label %_ZN2cvL10f64_to_i32ENS_10softdoubleEhb.exit, label %32

32:                                               ; preds = %26, %_ZN2cvL25softfloat_shiftRightJam64Emm.exit.i
  %33 = select i1 %spec.select.i, i64 -2147483648, i64 2147483647
  br label %_ZN2cvL10f64_to_i32ENS_10softdoubleEhb.exit

_ZN2cvL10f64_to_i32ENS_10softdoubleEhb.exit:      ; preds = %26, %32
  %.0.i.i = phi i64 [ %33, %32 ], [ %30, %26 ]
  %34 = trunc nsw i64 %.0.i.i to i32
  ret i32 %34
}